(dp0
S'problem_data'
p1
(dp2
S'turnZero_half_2D'
p3
I1
sS'change_BCs'
p4
I1
sS't_change_BCs'
p5
I50
sS't_turnZero'
p6
I50
ssS'num_aux'
p7
I4
sS'num_eqn'
p8
I1
sS'write_aux'
p9
I00
sS't'
p10
F120.0
sS'nstates'
p11
I1
sS'num_dim'
p12
I2
s.(dp0
S'delta'
p1
(lp2
F0.03125
aF0.0078125
asS'lower'
p3
(lp4
F0.0
aF0.0
asS'num_cells'
p5
(lp6
I3200
aI128
asS'names'
p7
(lp8
S'x'
p9
aS'y'
p10
asS'level'
p11
I1
s.